target datalayout = "e-m:e-p270:32:32-p271:32:32-p272:64:64-i64:64-i128:128-f80:128-n8:16:32:64-S128"
target triple = "x86_64-pc-linux-gnu"

@hf_wifi_dpp_ie_generic = internal global i32 0, align 4
@ett_wifi_dpp_ie_generic = internal global i32 0, align 4
@.str.166 = private unnamed_addr constant [15 x i8] c"Generic DPP IE\00", align 1

; Function Attrs: nounwind uwtable
define internal i32 @dissect_wifi_dpp_ie(ptr noundef %0, ptr noundef %1, ptr noundef %2, ptr noundef %3) #0 {
  %5 = alloca ptr, align 8
  %6 = alloca ptr, align 8
  %7 = alloca ptr, align 8
  %8 = alloca ptr, align 8
  %9 = alloca ptr, align 8
  %10 = alloca i32, align 4
  store ptr %0, ptr %5, align 8
  store ptr %1, ptr %6, align 8
  store ptr %2, ptr %7, align 8
  store ptr %3, ptr %8, align 8
  %11 = load ptr, ptr %5, align 8
  %12 = call i32 @tvb_reported_length(ptr noundef %11)
  store i32 %12, ptr %10, align 4
  %13 = load ptr, ptr %7, align 8
  %14 = load ptr, ptr %5, align 8
  %15 = load i32, ptr %10, align 4
  %16 = load i32, ptr @ett_wifi_dpp_ie_generic, align 4
  %17 = call ptr @proto_tree_add_subtree(ptr noundef %13, ptr noundef %14, i32 noundef 0, i32 noundef %15, i32 noundef %16, ptr noundef null, ptr noundef @.str.166)
  store ptr %17, ptr %9, align 8
  %18 = load ptr, ptr %9, align 8
  %19 = load i32, ptr @hf_wifi_dpp_ie_generic, align 4
  %20 = load ptr, ptr %5, align 8
  %21 = load i32, ptr %10, align 4
  %22 = call ptr @proto_tree_add_item(ptr noundef %18, i32 noundef %19, ptr noundef %20, i32 noundef 0, i32 noundef %21, i32 noundef 0)
  %23 = load ptr, ptr %5, align 8
  %24 = call i32 @tvb_captured_length(ptr noundef %23)
  ret i32 %24
}