; Function Attrs: nounwind uwtable
define internal i32 @dissect_wifi_dpp_ie(ptr noundef %0, ptr readnone captures(none) %1, ptr noundef %2, ptr readnone captures(none) %3) #0 {
  %5 = tail call i32 @tvb_reported_length(ptr noundef %0) #2
  %6 = load i32, ptr @ett_wifi_dpp_ie_generic, align 4
  %7 = tail call ptr @proto_tree_add_subtree(ptr noundef %2, ptr noundef %0, i32 noundef 0, i32 noundef %5, i32 noundef %6, ptr noundef null, ptr noundef nonnull @.str.166) #2
  %8 = load i32, ptr @hf_wifi_dpp_ie_generic, align 4
  %9 = tail call ptr @proto_tree_add_item(ptr noundef %7, i32 noundef %8, ptr noundef %0, i32 noundef 0, i32 noundef %5, i32 noundef 0) #2
  %10 = tail call i32 @tvb_captured_length(ptr noundef %0) #2
  ret i32 %10
}